target datalayout = "e-m:e-p270:32:32-p271:32:32-p272:64:64-i64:64-i128:128-f80:128-n8:16:32:64-S128"
target triple = "x86_64-pc-linux-gnu"

@.str = private unnamed_addr constant [26 x i8] c"../openssl/crypto/o_str.c\00", align 1
@__func__.hexstr2buf_sep = private unnamed_addr constant [15 x i8] c"hexstr2buf_sep\00", align 1

; Function Attrs: nounwind uwtable
define internal i32 @hexstr2buf_sep(ptr noundef %0, i64 noundef %1, ptr noundef %2, ptr noundef %3, i8 noundef signext %4) #0 {
  %6 = alloca i32, align 4
  %7 = alloca ptr, align 8
  %8 = alloca i64, align 8
  %9 = alloca ptr, align 8
  %10 = alloca ptr, align 8
  %11 = alloca i8, align 1
  %12 = alloca ptr, align 8
  %13 = alloca i8, align 1
  %14 = alloca i8, align 1
  %15 = alloca i32, align 4
  %16 = alloca i32, align 4
  %17 = alloca ptr, align 8
  %18 = alloca i64, align 8
  %19 = alloca i32, align 4
  store ptr %0, ptr %7, align 8, !tbaa !3
  store i64 %1, ptr %8, align 8, !tbaa !10
  store ptr %2, ptr %9, align 8, !tbaa !20
  store ptr %3, ptr %10, align 8, !tbaa !3
  store i8 %4, ptr %11, align 1, !tbaa !12
  call void @llvm.lifetime.start.p0(i64 8, ptr %12) #8
  call void @llvm.lifetime.start.p0(i64 1, ptr %13) #8
  call void @llvm.lifetime.start.p0(i64 1, ptr %14) #8
  call void @llvm.lifetime.start.p0(i64 4, ptr %15) #8
  call void @llvm.lifetime.start.p0(i64 4, ptr %16) #8
  call void @llvm.lifetime.start.p0(i64 8, ptr %17) #8
  call void @llvm.lifetime.start.p0(i64 8, ptr %18) #8
  %20 = load ptr, ptr %10, align 8, !tbaa !3
  store ptr %20, ptr %17, align 8, !tbaa !3
  %21 = load ptr, ptr %7, align 8, !tbaa !3
  store ptr %21, ptr %12, align 8, !tbaa !3
  store i64 0, ptr %18, align 8, !tbaa !10
  br label %22

22:                                               ; preds = %76, %39, %5
  %23 = load ptr, ptr %17, align 8, !tbaa !3
  %24 = load i8, ptr %23, align 1, !tbaa !12
  %25 = icmp ne i8 %24, 0
  br i1 %25, label %26, label %77

26:                                               ; preds = %22
  %27 = load ptr, ptr %17, align 8, !tbaa !3
  %28 = getelementptr inbounds nuw i8, ptr %27, i32 1
  store ptr %28, ptr %17, align 8, !tbaa !3
  %29 = load i8, ptr %27, align 1, !tbaa !12
  store i8 %29, ptr %13, align 1, !tbaa !12
  %30 = load i8, ptr %13, align 1, !tbaa !12
  %31 = zext i8 %30 to i32
  %32 = load i8, ptr %11, align 1, !tbaa !12
  %33 = sext i8 %32 to i32
  %34 = icmp eq i32 %31, %33
  br i1 %34, label %35, label %40

35:                                               ; preds = %26
  %36 = load i8, ptr %11, align 1, !tbaa !12
  %37 = sext i8 %36 to i32
  %38 = icmp ne i32 %37, 0
  br i1 %38, label %39, label %40

39:                                               ; preds = %35
  br label %22, !llvm.loop !22

40:                                               ; preds = %35, %26
  %41 = load ptr, ptr %17, align 8, !tbaa !3
  %42 = getelementptr inbounds nuw i8, ptr %41, i32 1
  store ptr %42, ptr %17, align 8, !tbaa !3
  %43 = load i8, ptr %41, align 1, !tbaa !12
  store i8 %43, ptr %14, align 1, !tbaa !12
  %44 = load i8, ptr %14, align 1, !tbaa !12
  %45 = icmp ne i8 %44, 0
  br i1 %45, label %47, label %46

46:                                               ; preds = %40
  call void @ERR_new()
  call void @ERR_set_debug(ptr noundef @.str, i32 noundef 221, ptr noundef @__func__.hexstr2buf_sep)
  call void (i32, i32, ptr, ...) @ERR_set_error(i32 noundef 15, i32 noundef 103, ptr noundef null)
  store i32 0, ptr %6, align 4
  store i32 1, ptr %19, align 4
  br label %84

47:                                               ; preds = %40
  %48 = load i8, ptr %14, align 1, !tbaa !12
  %49 = call i32 @OPENSSL_hexchar2int(i8 noundef zeroext %48)
  store i32 %49, ptr %16, align 4, !tbaa !8
  %50 = load i8, ptr %13, align 1, !tbaa !12
  %51 = call i32 @OPENSSL_hexchar2int(i8 noundef zeroext %50)
  store i32 %51, ptr %15, align 4, !tbaa !8
  %52 = load i32, ptr %16, align 4, !tbaa !8
  %53 = icmp slt i32 %52, 0
  br i1 %53, label %57, label %54

54:                                               ; preds = %47
  %55 = load i32, ptr %15, align 4, !tbaa !8
  %56 = icmp slt i32 %55, 0
  br i1 %56, label %57, label %58

57:                                               ; preds = %54, %47
  call void @ERR_new()
  call void @ERR_set_debug(ptr noundef @.str, i32 noundef 227, ptr noundef @__func__.hexstr2buf_sep)
  call void (i32, i32, ptr, ...) @ERR_set_error(i32 noundef 15, i32 noundef 102, ptr noundef null)
  store i32 0, ptr %6, align 4
  store i32 1, ptr %19, align 4
  br label %84

58:                                               ; preds = %54
  %59 = load i64, ptr %18, align 8, !tbaa !10
  %60 = add i64 %59, 1
  store i64 %60, ptr %18, align 8, !tbaa !10
  %61 = load ptr, ptr %12, align 8, !tbaa !3
  %62 = icmp ne ptr %61, null
  br i1 %62, label %63, label %76

63:                                               ; preds = %58
  %64 = load i64, ptr %18, align 8, !tbaa !10
  %65 = load i64, ptr %8, align 8, !tbaa !10
  %66 = icmp ugt i64 %64, %65
  br i1 %66, label %67, label %68

67:                                               ; preds = %63
  call void @ERR_new()
  call void @ERR_set_debug(ptr noundef @.str, i32 noundef 233, ptr noundef @__func__.hexstr2buf_sep)
  call void (i32, i32, ptr, ...) @ERR_set_error(i32 noundef 15, i32 noundef 116, ptr noundef null)
  store i32 0, ptr %6, align 4
  store i32 1, ptr %19, align 4
  br label %84

68:                                               ; preds = %63
  %69 = load i32, ptr %15, align 4, !tbaa !8
  %70 = shl i32 %69, 4
  %71 = load i32, ptr %16, align 4, !tbaa !8
  %72 = or i32 %70, %71
  %73 = trunc i32 %72 to i8
  %74 = load ptr, ptr %12, align 8, !tbaa !3
  %75 = getelementptr inbounds nuw i8, ptr %74, i32 1
  store ptr %75, ptr %12, align 8, !tbaa !3
  store i8 %73, ptr %74, align 1, !tbaa !12
  br label %76

76:                                               ; preds = %68, %58
  br label %22, !llvm.loop !22

77:                                               ; preds = %22
  %78 = load ptr, ptr %9, align 8, !tbaa !20
  %79 = icmp ne ptr %78, null
  br i1 %79, label %80, label %83

80:                                               ; preds = %77
  %81 = load i64, ptr %18, align 8, !tbaa !10
  %82 = load ptr, ptr %9, align 8, !tbaa !20
  store i64 %81, ptr %82, align 8, !tbaa !10
  br label %83

83:                                               ; preds = %80, %77
  store i32 1, ptr %6, align 4
  store i32 1, ptr %19, align 4
  br label %84

84:                                               ; preds = %83, %67, %57, %46
  call void @llvm.lifetime.end.p0(i64 8, ptr %18) #8
  call void @llvm.lifetime.end.p0(i64 8, ptr %17) #8
  call void @llvm.lifetime.end.p0(i64 4, ptr %16) #8
  call void @llvm.lifetime.end.p0(i64 4, ptr %15) #8
  call void @llvm.lifetime.end.p0(i64 1, ptr %14) #8
  call void @llvm.lifetime.end.p0(i64 1, ptr %13) #8
  call void @llvm.lifetime.end.p0(i64 8, ptr %12) #8
  %85 = load i32, ptr %6, align 4
  ret i32 %85
}