; Function Attrs: nounwind uwtable
define internal fastcc range(i32 0, 2) i32 @hexstr2buf_sep(ptr noundef writeonly captures(address) %0, i64 noundef %1, ptr noundef writeonly captures(address_is_null) %2, ptr noundef readonly captures(none) %3, i8 noundef signext %4) unnamed_addr #0 {
  %6 = sext i8 %4 to i32
  br label %.outer

.outer:                                           ; preds = %.outer.backedge, %5
  %.029.ph = phi ptr [ %0, %5 ], [ %.029.ph.be, %.outer.backedge ]
  %.027.ph = phi ptr [ %3, %5 ], [ %14, %.outer.backedge ]
  %.0.ph = phi i64 [ 0, %5 ], [ %24, %.outer.backedge ]
  br label %7

7:                                                ; preds = %.outer, %9
  %.027 = phi ptr [ %10, %9 ], [ %.027.ph, %.outer ]
  %8 = load i8, ptr %.027, align 1, !tbaa !3
  %.not = icmp eq i8 %8, 0
  br i1 %.not, label %33, label %9

9:                                                ; preds = %7
  %10 = getelementptr inbounds nuw i8, ptr %.027, i64 1
  %11 = zext i8 %8 to i32
  %12 = icmp eq i32 %11, %6
  br i1 %12, label %7, label %13, !llvm.loop !17

13:                                               ; preds = %9
  %14 = getelementptr inbounds nuw i8, ptr %.027, i64 2
  %15 = load i8, ptr %10, align 1, !tbaa !3
  %.not36 = icmp eq i8 %15, 0
  br i1 %.not36, label %16, label %17

16:                                               ; preds = %13
  tail call void @ERR_new() #16
  tail call void @ERR_set_debug(ptr noundef nonnull @.str, i32 noundef 221, ptr noundef nonnull @__func__.hexstr2buf_sep) #16
  tail call void (i32, i32, ptr, ...) @ERR_set_error(i32 noundef 15, i32 noundef 103, ptr noundef null) #16
  br label %35

17:                                               ; preds = %13
  %18 = tail call i32 @OPENSSL_hexchar2int(i8 noundef zeroext %15)
  %19 = tail call i32 @OPENSSL_hexchar2int(i8 noundef zeroext %8)
  %20 = icmp slt i32 %18, 0
  %21 = icmp slt i32 %19, 0
  %or.cond4 = select i1 %20, i1 true, i1 %21
  br i1 %or.cond4, label %22, label %23

22:                                               ; preds = %17
  tail call void @ERR_new() #16
  tail call void @ERR_set_debug(ptr noundef nonnull @.str, i32 noundef 227, ptr noundef nonnull @__func__.hexstr2buf_sep) #16
  tail call void (i32, i32, ptr, ...) @ERR_set_error(i32 noundef 15, i32 noundef 102, ptr noundef null) #16
  br label %35

23:                                               ; preds = %17
  %24 = add i64 %.0.ph, 1
  %.not37 = icmp eq ptr %.029.ph, null
  br i1 %.not37, label %.outer.backedge, label %25

25:                                               ; preds = %23
  %26 = icmp ugt i64 %24, %1
  br i1 %26, label %27, label %28

27:                                               ; preds = %25
  tail call void @ERR_new() #16
  tail call void @ERR_set_debug(ptr noundef nonnull @.str, i32 noundef 233, ptr noundef nonnull @__func__.hexstr2buf_sep) #16
  tail call void (i32, i32, ptr, ...) @ERR_set_error(i32 noundef 15, i32 noundef 116, ptr noundef null) #16
  br label %35

28:                                               ; preds = %25
  %29 = shl nuw nsw i32 %19, 4
  %30 = or i32 %29, %18
  %31 = trunc nuw i32 %30 to i8
  %32 = getelementptr inbounds nuw i8, ptr %.029.ph, i64 1
  store i8 %31, ptr %.029.ph, align 1, !tbaa !3
  br label %.outer.backedge

.outer.backedge:                                  ; preds = %28, %23
  %.029.ph.be = phi ptr [ %32, %28 ], [ null, %23 ]
  br label %.outer, !llvm.loop !17

33:                                               ; preds = %7
  %.not35 = icmp eq ptr %2, null
  br i1 %.not35, label %35, label %34

34:                                               ; preds = %33
  store i64 %.0.ph, ptr %2, align 8, !tbaa !15
  br label %35

35:                                               ; preds = %33, %34, %27, %22, %16
  %.028 = phi i32 [ 0, %22 ], [ 0, %27 ], [ 0, %16 ], [ 1, %34 ], [ 1, %33 ]
  ret i32 %.028
}